target datalayout = "e-m:e-p270:32:32-p271:32:32-p272:64:64-i64:64-i128:128-f80:128-n8:16:32:64-S128"
target triple = "x86_64-pc-linux-gnu"

%struct.rb_data_type_struct = type { ptr, %struct.anon, ptr, ptr, i64 }
%struct.anon = type { ptr, ptr, ptr, ptr, [1 x ptr] }
%struct.time_object = type { i64, %struct.vtm }
%struct.vtm = type { i64, i64, i64, i64, i64 }

@rb_cTime = dso_local global i64 0, align 8
@time_data_type = internal constant %struct.rb_data_type_struct { ptr @.str.96, %struct.anon { ptr @time_mark, ptr inttoptr (i64 -1 to ptr), ptr null, ptr null, [1 x ptr] zeroinitializer }, ptr null, ptr null, i64 291 }, align 8
@rb_eTypeError = external global i64, align 8
@.str.92 = private unnamed_addr constant [19 x i8] c"uninitialized %li\0B\00", align 1

; Function Attrs: nounwind sspstrong uwtable
define internal i64 @time_add(ptr noundef %0, i64 noundef %1, i64 noundef %2, i32 noundef %3) #0 {
  %5 = alloca ptr, align 8
  %6 = alloca i64, align 8
  %7 = alloca i64, align 8
  %8 = alloca i32, align 4
  store ptr %0, ptr %5, align 8, !tbaa !18
  store i64 %1, ptr %6, align 8, !tbaa !11
  store i64 %2, ptr %7, align 8, !tbaa !11
  store i32 %3, ptr %8, align 4, !tbaa !20
  %9 = load i64, ptr @rb_cTime, align 8, !tbaa !11
  %10 = load ptr, ptr %5, align 8, !tbaa !18
  %11 = load i64, ptr %6, align 8, !tbaa !11
  %12 = load i64, ptr %7, align 8, !tbaa !11
  %13 = load i32, ptr %8, align 4, !tbaa !20
  %14 = call i64 @time_add0(i64 noundef %9, ptr noundef %10, i64 noundef %11, i64 noundef %12, i32 noundef %13)
  ret i64 %14
}

; Function Attrs: nounwind sspstrong uwtable
define internal ptr @get_timeval(i64 noundef %0) #0 {
  %2 = alloca i64, align 8
  %3 = alloca ptr, align 8
  store i64 %0, ptr %2, align 8, !tbaa !11
  call void @llvm.lifetime.start.p0(i64 8, ptr %3) #22
  %4 = load i64, ptr %2, align 8, !tbaa !11
  %5 = call ptr @rb_check_typeddata(i64 noundef %4, ptr noundef @time_data_type)
  store ptr %5, ptr %3, align 8, !tbaa !18
  %6 = load ptr, ptr %3, align 8, !tbaa !18
  %7 = getelementptr inbounds nuw %struct.time_object, ptr %6, i32 0, i32 1
  %8 = getelementptr inbounds nuw %struct.vtm, ptr %7, i32 0, i32 4
  %9 = load i64, ptr %8, align 8
  %10 = lshr i64 %9, 43
  %11 = and i64 %10, 7
  %12 = trunc i64 %11 to i32
  %13 = icmp ne i32 %12, 3
  br i1 %13, label %18, label %14

14:                                               ; preds = %1
  %15 = load i64, ptr @rb_eTypeError, align 8, !tbaa !11
  %16 = load i64, ptr %2, align 8, !tbaa !11
  %17 = call i64 @rb_obj_class(i64 noundef %16)
  call void (i64, ptr, ...) @rb_raise(i64 noundef %15, ptr noundef @.str.92, i64 noundef %17) #23
  unreachable

18:                                               ; preds = %1
  %19 = load ptr, ptr %3, align 8, !tbaa !18
  call void @llvm.lifetime.end.p0(i64 8, ptr %3) #22
  ret ptr %19
}

; Function Attrs: nounwind sspstrong uwtable
define internal i64 @time_minus(i64 noundef %0, i64 noundef %1) #0 {
  %3 = alloca i64, align 8
  %4 = alloca i64, align 8
  %5 = alloca i64, align 8
  %6 = alloca ptr, align 8
  %7 = alloca ptr, align 8
  %8 = alloca i32, align 4
  store i64 %0, ptr %4, align 8, !tbaa !11
  store i64 %1, ptr %5, align 8, !tbaa !11
  call void @llvm.lifetime.start.p0(i64 8, ptr %6) #22
  %9 = load i64, ptr %4, align 8, !tbaa !11
  %10 = call ptr @get_timeval(i64 noundef %9)
  store ptr %10, ptr %6, align 8, !tbaa !18
  %11 = load i64, ptr %5, align 8, !tbaa !11
  %12 = call i32 @rb_typeddata_is_kind_of(i64 noundef %11, ptr noundef @time_data_type)
  %13 = icmp ne i32 %12, 0
  br i1 %13, label %14, label %26

14:                                               ; preds = %2
  call void @llvm.lifetime.start.p0(i64 8, ptr %7) #22
  %15 = load i64, ptr %5, align 8, !tbaa !11
  %16 = call ptr @get_timeval(i64 noundef %15)
  store ptr %16, ptr %7, align 8, !tbaa !18
  %17 = load ptr, ptr %6, align 8, !tbaa !18
  %18 = getelementptr inbounds nuw %struct.time_object, ptr %17, i32 0, i32 0
  %19 = load i64, ptr %18, align 8, !tbaa !33
  %20 = load ptr, ptr %7, align 8, !tbaa !18
  %21 = getelementptr inbounds nuw %struct.time_object, ptr %20, i32 0, i32 0
  %22 = load i64, ptr %21, align 8, !tbaa !33
  %23 = call i64 @wsub(i64 noundef %19, i64 noundef %22)
  %24 = call i64 @rb_time_unmagnify_to_float(i64 noundef %23)
  %25 = call i64 @rb_Float(i64 noundef %24)
  store i64 %25, ptr %3, align 8
  store i32 1, ptr %8, align 4
  call void @llvm.lifetime.end.p0(i64 8, ptr %7) #22
  br label %31

26:                                               ; preds = %2
  %27 = load ptr, ptr %6, align 8, !tbaa !18
  %28 = load i64, ptr %4, align 8, !tbaa !11
  %29 = load i64, ptr %5, align 8, !tbaa !11
  %30 = call i64 @time_add(ptr noundef %27, i64 noundef %28, i64 noundef %29, i32 noundef -1)
  store i64 %30, ptr %3, align 8
  store i32 1, ptr %8, align 4
  br label %31

31:                                               ; preds = %26, %14
  call void @llvm.lifetime.end.p0(i64 8, ptr %6) #22
  %32 = load i64, ptr %3, align 8
  ret i64 %32
}