; Function Attrs: nounwind sspstrong uwtable
define internal i64 @time_minus(i64 noundef %0, i64 noundef %1) #1 {
  %3 = tail call ptr @rb_check_typeddata(i64 noundef %0, ptr noundef nonnull @time_data_type) #21
  %4 = getelementptr inbounds nuw i8, ptr %3, i64 40
  %5 = load i64, ptr %4, align 8
  %6 = and i64 %5, 61572651155456
  %.not.i = icmp eq i64 %6, 26388279066624
  br i1 %.not.i, label %7, label %get_timeval.exit

7:                                                ; preds = %2
  %8 = load i64, ptr @rb_eTypeError, align 8, !tbaa !11
  %9 = tail call i64 @rb_obj_class(i64 noundef %0) #21
  tail call void (i64, ptr, ...) @rb_raise(i64 noundef %8, ptr noundef nonnull @.str.92, i64 noundef %9) #22
  unreachable

get_timeval.exit:                                 ; preds = %2
  %10 = tail call i32 @rb_typeddata_is_kind_of(i64 noundef %1, ptr noundef nonnull @time_data_type) #21
  %.not = icmp eq i32 %10, 0
  br i1 %.not, label %24, label %11

11:                                               ; preds = %get_timeval.exit
  %12 = tail call ptr @rb_check_typeddata(i64 noundef %1, ptr noundef nonnull @time_data_type) #21
  %13 = getelementptr inbounds nuw i8, ptr %12, i64 40
  %14 = load i64, ptr %13, align 8
  %15 = and i64 %14, 61572651155456
  %.not.i8 = icmp eq i64 %15, 26388279066624
  br i1 %.not.i8, label %16, label %get_timeval.exit9

16:                                               ; preds = %11
  %17 = load i64, ptr @rb_eTypeError, align 8, !tbaa !11
  %18 = tail call i64 @rb_obj_class(i64 noundef %1) #21
  tail call void (i64, ptr, ...) @rb_raise(i64 noundef %17, ptr noundef nonnull @.str.92, i64 noundef %18) #22
  unreachable

get_timeval.exit9:                                ; preds = %11
  %19 = load i64, ptr %3, align 8, !tbaa !25
  %20 = load i64, ptr %12, align 8, !tbaa !25
  %21 = tail call fastcc i64 @wsub(i64 noundef %19, i64 noundef %20)
  %22 = tail call fastcc i64 @rb_time_unmagnify_to_float(i64 noundef %21)
  %23 = tail call i64 @rb_Float(i64 noundef %22) #21
  br label %27

24:                                               ; preds = %get_timeval.exit
  %25 = load i64, ptr @rb_cTime, align 8, !tbaa !11
  %26 = tail call fastcc noundef i64 @time_add0(i64 noundef %25, ptr noundef nonnull readonly %3, i64 noundef %1, i32 noundef -1)
  br label %27

27:                                               ; preds = %24, %get_timeval.exit9
  %.0 = phi i64 [ %23, %get_timeval.exit9 ], [ %26, %24 ]
  ret i64 %.0
}